target datalayout = "e-m:e-p270:32:32-p271:32:32-p272:64:64-i64:64-i128:128-f80:128-n8:16:32:64-S128"
target triple = "x86_64-pc-linux-gnu"

; Function Attrs: alwaysinline nounwind willreturn memory(none) uwtable
define internal zeroext i8 @av_clip_uint8_c(i32 noundef %0) #4 {
  %2 = alloca i8, align 1
  %3 = alloca i32, align 4
  store i32 %0, ptr %3, align 4, !tbaa !13
  %4 = load i32, ptr %3, align 4, !tbaa !13
  %5 = and i32 %4, -256
  %6 = icmp ne i32 %5, 0
  br i1 %6, label %7, label %12

7:                                                ; preds = %1
  %8 = load i32, ptr %3, align 4, !tbaa !13
  %9 = xor i32 %8, -1
  %10 = ashr i32 %9, 31
  %11 = trunc i32 %10 to i8
  store i8 %11, ptr %2, align 1
  br label %15

12:                                               ; preds = %1
  %13 = load i32, ptr %3, align 4, !tbaa !13
  %14 = trunc i32 %13 to i8
  store i8 %14, ptr %2, align 1
  br label %15

15:                                               ; preds = %12, %7
  %16 = load i8, ptr %2, align 1
  ret i8 %16
}

; Function Attrs: nounwind uwtable
define internal void @dirac_hpel_filter(ptr noundef %0, ptr noundef %1, ptr noundef %2, ptr noundef %3, i32 noundef %4, i32 noundef %5, i32 noundef %6) #1 {
  %8 = alloca ptr, align 8
  %9 = alloca ptr, align 8
  %10 = alloca ptr, align 8
  %11 = alloca ptr, align 8
  %12 = alloca i32, align 4
  %13 = alloca i32, align 4
  %14 = alloca i32, align 4
  %15 = alloca i32, align 4
  %16 = alloca i32, align 4
  store ptr %0, ptr %8, align 8, !tbaa !11
  store ptr %1, ptr %9, align 8, !tbaa !11
  store ptr %2, ptr %10, align 8, !tbaa !11
  store ptr %3, ptr %11, align 8, !tbaa !11
  store i32 %4, ptr %12, align 4, !tbaa !13
  store i32 %5, ptr %13, align 4, !tbaa !13
  store i32 %6, ptr %14, align 4, !tbaa !13
  call void @llvm.lifetime.start.p0(i64 4, ptr %15) #5
  call void @llvm.lifetime.start.p0(i64 4, ptr %16) #5
  store i32 0, ptr %16, align 4, !tbaa !13
  br label %17

17:                                               ; preds = %312, %7
  %18 = load i32, ptr %16, align 4, !tbaa !13
  %19 = load i32, ptr %14, align 4, !tbaa !13
  %20 = icmp slt i32 %18, %19
  br i1 %20, label %21, label %315

21:                                               ; preds = %17
  store i32 -3, ptr %15, align 4, !tbaa !13
  br label %22

22:                                               ; preds = %126, %21
  %23 = load i32, ptr %15, align 4, !tbaa !13
  %24 = load i32, ptr %13, align 4, !tbaa !13
  %25 = add nsw i32 %24, 5
  %26 = icmp slt i32 %23, %25
  br i1 %26, label %27, label %129

27:                                               ; preds = %22
  %28 = load ptr, ptr %11, align 8, !tbaa !11
  %29 = load i32, ptr %15, align 4, !tbaa !13
  %30 = sext i32 %29 to i64
  %31 = getelementptr inbounds i8, ptr %28, i64 %30
  %32 = load i32, ptr %12, align 4, !tbaa !13
  %33 = mul nsw i32 0, %32
  %34 = sext i32 %33 to i64
  %35 = getelementptr inbounds i8, ptr %31, i64 %34
  %36 = load i8, ptr %35, align 1, !tbaa !15
  %37 = zext i8 %36 to i32
  %38 = load ptr, ptr %11, align 8, !tbaa !11
  %39 = load i32, ptr %15, align 4, !tbaa !13
  %40 = sext i32 %39 to i64
  %41 = getelementptr inbounds i8, ptr %38, i64 %40
  %42 = load i32, ptr %12, align 4, !tbaa !13
  %43 = mul nsw i32 1, %42
  %44 = sext i32 %43 to i64
  %45 = getelementptr inbounds i8, ptr %41, i64 %44
  %46 = load i8, ptr %45, align 1, !tbaa !15
  %47 = zext i8 %46 to i32
  %48 = add nsw i32 %37, %47
  %49 = mul nsw i32 21, %48
  %50 = load ptr, ptr %11, align 8, !tbaa !11
  %51 = load i32, ptr %15, align 4, !tbaa !13
  %52 = sext i32 %51 to i64
  %53 = getelementptr inbounds i8, ptr %50, i64 %52
  %54 = load i32, ptr %12, align 4, !tbaa !13
  %55 = mul nsw i32 -1, %54
  %56 = sext i32 %55 to i64
  %57 = getelementptr inbounds i8, ptr %53, i64 %56
  %58 = load i8, ptr %57, align 1, !tbaa !15
  %59 = zext i8 %58 to i32
  %60 = load ptr, ptr %11, align 8, !tbaa !11
  %61 = load i32, ptr %15, align 4, !tbaa !13
  %62 = sext i32 %61 to i64
  %63 = getelementptr inbounds i8, ptr %60, i64 %62
  %64 = load i32, ptr %12, align 4, !tbaa !13
  %65 = mul nsw i32 2, %64
  %66 = sext i32 %65 to i64
  %67 = getelementptr inbounds i8, ptr %63, i64 %66
  %68 = load i8, ptr %67, align 1, !tbaa !15
  %69 = zext i8 %68 to i32
  %70 = add nsw i32 %59, %69
  %71 = mul nsw i32 7, %70
  %72 = sub nsw i32 %49, %71
  %73 = load ptr, ptr %11, align 8, !tbaa !11
  %74 = load i32, ptr %15, align 4, !tbaa !13
  %75 = sext i32 %74 to i64
  %76 = getelementptr inbounds i8, ptr %73, i64 %75
  %77 = load i32, ptr %12, align 4, !tbaa !13
  %78 = mul nsw i32 -2, %77
  %79 = sext i32 %78 to i64
  %80 = getelementptr inbounds i8, ptr %76, i64 %79
  %81 = load i8, ptr %80, align 1, !tbaa !15
  %82 = zext i8 %81 to i32
  %83 = load ptr, ptr %11, align 8, !tbaa !11
  %84 = load i32, ptr %15, align 4, !tbaa !13
  %85 = sext i32 %84 to i64
  %86 = getelementptr inbounds i8, ptr %83, i64 %85
  %87 = load i32, ptr %12, align 4, !tbaa !13
  %88 = mul nsw i32 3, %87
  %89 = sext i32 %88 to i64
  %90 = getelementptr inbounds i8, ptr %86, i64 %89
  %91 = load i8, ptr %90, align 1, !tbaa !15
  %92 = zext i8 %91 to i32
  %93 = add nsw i32 %82, %92
  %94 = mul nsw i32 3, %93
  %95 = add nsw i32 %72, %94
  %96 = load ptr, ptr %11, align 8, !tbaa !11
  %97 = load i32, ptr %15, align 4, !tbaa !13
  %98 = sext i32 %97 to i64
  %99 = getelementptr inbounds i8, ptr %96, i64 %98
  %100 = load i32, ptr %12, align 4, !tbaa !13
  %101 = mul nsw i32 -3, %100
  %102 = sext i32 %101 to i64
  %103 = getelementptr inbounds i8, ptr %99, i64 %102
  %104 = load i8, ptr %103, align 1, !tbaa !15
  %105 = zext i8 %104 to i32
  %106 = load ptr, ptr %11, align 8, !tbaa !11
  %107 = load i32, ptr %15, align 4, !tbaa !13
  %108 = sext i32 %107 to i64
  %109 = getelementptr inbounds i8, ptr %106, i64 %108
  %110 = load i32, ptr %12, align 4, !tbaa !13
  %111 = mul nsw i32 4, %110
  %112 = sext i32 %111 to i64
  %113 = getelementptr inbounds i8, ptr %109, i64 %112
  %114 = load i8, ptr %113, align 1, !tbaa !15
  %115 = zext i8 %114 to i32
  %116 = add nsw i32 %105, %115
  %117 = mul nsw i32 1, %116
  %118 = sub nsw i32 %95, %117
  %119 = add nsw i32 %118, 16
  %120 = ashr i32 %119, 5
  %121 = call zeroext i8 @av_clip_uint8_c(i32 noundef %120) #6
  %122 = load ptr, ptr %9, align 8, !tbaa !11
  %123 = load i32, ptr %15, align 4, !tbaa !13
  %124 = sext i32 %123 to i64
  %125 = getelementptr inbounds i8, ptr %122, i64 %124
  store i8 %121, ptr %125, align 1, !tbaa !15
  br label %126

126:                                              ; preds = %27
  %127 = load i32, ptr %15, align 4, !tbaa !13
  %128 = add nsw i32 %127, 1
  store i32 %128, ptr %15, align 4, !tbaa !13
  br label %22, !llvm.loop !16

129:                                              ; preds = %22
  store i32 0, ptr %15, align 4, !tbaa !13
  br label %130

130:                                              ; preds = %209, %129
  %131 = load i32, ptr %15, align 4, !tbaa !13
  %132 = load i32, ptr %13, align 4, !tbaa !13
  %133 = icmp slt i32 %131, %132
  br i1 %133, label %134, label %212

134:                                              ; preds = %130
  %135 = load ptr, ptr %9, align 8, !tbaa !11
  %136 = load i32, ptr %15, align 4, !tbaa !13
  %137 = sext i32 %136 to i64
  %138 = getelementptr inbounds i8, ptr %135, i64 %137
  %139 = getelementptr inbounds i8, ptr %138, i64 0
  %140 = load i8, ptr %139, align 1, !tbaa !15
  %141 = zext i8 %140 to i32
  %142 = load ptr, ptr %9, align 8, !tbaa !11
  %143 = load i32, ptr %15, align 4, !tbaa !13
  %144 = sext i32 %143 to i64
  %145 = getelementptr inbounds i8, ptr %142, i64 %144
  %146 = getelementptr inbounds i8, ptr %145, i64 1
  %147 = load i8, ptr %146, align 1, !tbaa !15
  %148 = zext i8 %147 to i32
  %149 = add nsw i32 %141, %148
  %150 = mul nsw i32 21, %149
  %151 = load ptr, ptr %9, align 8, !tbaa !11
  %152 = load i32, ptr %15, align 4, !tbaa !13
  %153 = sext i32 %152 to i64
  %154 = getelementptr inbounds i8, ptr %151, i64 %153
  %155 = getelementptr inbounds i8, ptr %154, i64 -1
  %156 = load i8, ptr %155, align 1, !tbaa !15
  %157 = zext i8 %156 to i32
  %158 = load ptr, ptr %9, align 8, !tbaa !11
  %159 = load i32, ptr %15, align 4, !tbaa !13
  %160 = sext i32 %159 to i64
  %161 = getelementptr inbounds i8, ptr %158, i64 %160
  %162 = getelementptr inbounds i8, ptr %161, i64 2
  %163 = load i8, ptr %162, align 1, !tbaa !15
  %164 = zext i8 %163 to i32
  %165 = add nsw i32 %157, %164
  %166 = mul nsw i32 7, %165
  %167 = sub nsw i32 %150, %166
  %168 = load ptr, ptr %9, align 8, !tbaa !11
  %169 = load i32, ptr %15, align 4, !tbaa !13
  %170 = sext i32 %169 to i64
  %171 = getelementptr inbounds i8, ptr %168, i64 %170
  %172 = getelementptr inbounds i8, ptr %171, i64 -2
  %173 = load i8, ptr %172, align 1, !tbaa !15
  %174 = zext i8 %173 to i32
  %175 = load ptr, ptr %9, align 8, !tbaa !11
  %176 = load i32, ptr %15, align 4, !tbaa !13
  %177 = sext i32 %176 to i64
  %178 = getelementptr inbounds i8, ptr %175, i64 %177
  %179 = getelementptr inbounds i8, ptr %178, i64 3
  %180 = load i8, ptr %179, align 1, !tbaa !15
  %181 = zext i8 %180 to i32
  %182 = add nsw i32 %174, %181
  %183 = mul nsw i32 3, %182
  %184 = add nsw i32 %167, %183
  %185 = load ptr, ptr %9, align 8, !tbaa !11
  %186 = load i32, ptr %15, align 4, !tbaa !13
  %187 = sext i32 %186 to i64
  %188 = getelementptr inbounds i8, ptr %185, i64 %187
  %189 = getelementptr inbounds i8, ptr %188, i64 -3
  %190 = load i8, ptr %189, align 1, !tbaa !15
  %191 = zext i8 %190 to i32
  %192 = load ptr, ptr %9, align 8, !tbaa !11
  %193 = load i32, ptr %15, align 4, !tbaa !13
  %194 = sext i32 %193 to i64
  %195 = getelementptr inbounds i8, ptr %192, i64 %194
  %196 = getelementptr inbounds i8, ptr %195, i64 4
  %197 = load i8, ptr %196, align 1, !tbaa !15
  %198 = zext i8 %197 to i32
  %199 = add nsw i32 %191, %198
  %200 = mul nsw i32 1, %199
  %201 = sub nsw i32 %184, %200
  %202 = add nsw i32 %201, 16
  %203 = ashr i32 %202, 5
  %204 = call zeroext i8 @av_clip_uint8_c(i32 noundef %203) #6
  %205 = load ptr, ptr %10, align 8, !tbaa !11
  %206 = load i32, ptr %15, align 4, !tbaa !13
  %207 = sext i32 %206 to i64
  %208 = getelementptr inbounds i8, ptr %205, i64 %207
  store i8 %204, ptr %208, align 1, !tbaa !15
  br label %209

209:                                              ; preds = %134
  %210 = load i32, ptr %15, align 4, !tbaa !13
  %211 = add nsw i32 %210, 1
  store i32 %211, ptr %15, align 4, !tbaa !13
  br label %130, !llvm.loop !18

212:                                              ; preds = %130
  store i32 0, ptr %15, align 4, !tbaa !13
  br label %213

213:                                              ; preds = %292, %212
  %214 = load i32, ptr %15, align 4, !tbaa !13
  %215 = load i32, ptr %13, align 4, !tbaa !13
  %216 = icmp slt i32 %214, %215
  br i1 %216, label %217, label %295

217:                                              ; preds = %213
  %218 = load ptr, ptr %11, align 8, !tbaa !11
  %219 = load i32, ptr %15, align 4, !tbaa !13
  %220 = sext i32 %219 to i64
  %221 = getelementptr inbounds i8, ptr %218, i64 %220
  %222 = getelementptr inbounds i8, ptr %221, i64 0
  %223 = load i8, ptr %222, align 1, !tbaa !15
  %224 = zext i8 %223 to i32
  %225 = load ptr, ptr %11, align 8, !tbaa !11
  %226 = load i32, ptr %15, align 4, !tbaa !13
  %227 = sext i32 %226 to i64
  %228 = getelementptr inbounds i8, ptr %225, i64 %227
  %229 = getelementptr inbounds i8, ptr %228, i64 1
  %230 = load i8, ptr %229, align 1, !tbaa !15
  %231 = zext i8 %230 to i32
  %232 = add nsw i32 %224, %231
  %233 = mul nsw i32 21, %232
  %234 = load ptr, ptr %11, align 8, !tbaa !11
  %235 = load i32, ptr %15, align 4, !tbaa !13
  %236 = sext i32 %235 to i64
  %237 = getelementptr inbounds i8, ptr %234, i64 %236
  %238 = getelementptr inbounds i8, ptr %237, i64 -1
  %239 = load i8, ptr %238, align 1, !tbaa !15
  %240 = zext i8 %239 to i32
  %241 = load ptr, ptr %11, align 8, !tbaa !11
  %242 = load i32, ptr %15, align 4, !tbaa !13
  %243 = sext i32 %242 to i64
  %244 = getelementptr inbounds i8, ptr %241, i64 %243
  %245 = getelementptr inbounds i8, ptr %244, i64 2
  %246 = load i8, ptr %245, align 1, !tbaa !15
  %247 = zext i8 %246 to i32
  %248 = add nsw i32 %240, %247
  %249 = mul nsw i32 7, %248
  %250 = sub nsw i32 %233, %249
  %251 = load ptr, ptr %11, align 8, !tbaa !11
  %252 = load i32, ptr %15, align 4, !tbaa !13
  %253 = sext i32 %252 to i64
  %254 = getelementptr inbounds i8, ptr %251, i64 %253
  %255 = getelementptr inbounds i8, ptr %254, i64 -2
  %256 = load i8, ptr %255, align 1, !tbaa !15
  %257 = zext i8 %256 to i32
  %258 = load ptr, ptr %11, align 8, !tbaa !11
  %259 = load i32, ptr %15, align 4, !tbaa !13
  %260 = sext i32 %259 to i64
  %261 = getelementptr inbounds i8, ptr %258, i64 %260
  %262 = getelementptr inbounds i8, ptr %261, i64 3
  %263 = load i8, ptr %262, align 1, !tbaa !15
  %264 = zext i8 %263 to i32
  %265 = add nsw i32 %257, %264
  %266 = mul nsw i32 3, %265
  %267 = add nsw i32 %250, %266
  %268 = load ptr, ptr %11, align 8, !tbaa !11
  %269 = load i32, ptr %15, align 4, !tbaa !13
  %270 = sext i32 %269 to i64
  %271 = getelementptr inbounds i8, ptr %268, i64 %270
  %272 = getelementptr inbounds i8, ptr %271, i64 -3
  %273 = load i8, ptr %272, align 1, !tbaa !15
  %274 = zext i8 %273 to i32
  %275 = load ptr, ptr %11, align 8, !tbaa !11
  %276 = load i32, ptr %15, align 4, !tbaa !13
  %277 = sext i32 %276 to i64
  %278 = getelementptr inbounds i8, ptr %275, i64 %277
  %279 = getelementptr inbounds i8, ptr %278, i64 4
  %280 = load i8, ptr %279, align 1, !tbaa !15
  %281 = zext i8 %280 to i32
  %282 = add nsw i32 %274, %281
  %283 = mul nsw i32 1, %282
  %284 = sub nsw i32 %267, %283
  %285 = add nsw i32 %284, 16
  %286 = ashr i32 %285, 5
  %287 = call zeroext i8 @av_clip_uint8_c(i32 noundef %286) #6
  %288 = load ptr, ptr %8, align 8, !tbaa !11
  %289 = load i32, ptr %15, align 4, !tbaa !13
  %290 = sext i32 %289 to i64
  %291 = getelementptr inbounds i8, ptr %288, i64 %290
  store i8 %287, ptr %291, align 1, !tbaa !15
  br label %292

292:                                              ; preds = %217
  %293 = load i32, ptr %15, align 4, !tbaa !13
  %294 = add nsw i32 %293, 1
  store i32 %294, ptr %15, align 4, !tbaa !13
  br label %213, !llvm.loop !19

295:                                              ; preds = %213
  %296 = load i32, ptr %12, align 4, !tbaa !13
  %297 = load ptr, ptr %11, align 8, !tbaa !11
  %298 = sext i32 %296 to i64
  %299 = getelementptr inbounds i8, ptr %297, i64 %298
  store ptr %299, ptr %11, align 8, !tbaa !11
  %300 = load i32, ptr %12, align 4, !tbaa !13
  %301 = load ptr, ptr %8, align 8, !tbaa !11
  %302 = sext i32 %300 to i64
  %303 = getelementptr inbounds i8, ptr %301, i64 %302
  store ptr %303, ptr %8, align 8, !tbaa !11
  %304 = load i32, ptr %12, align 4, !tbaa !13
  %305 = load ptr, ptr %9, align 8, !tbaa !11
  %306 = sext i32 %304 to i64
  %307 = getelementptr inbounds i8, ptr %305, i64 %306
  store ptr %307, ptr %9, align 8, !tbaa !11
  %308 = load i32, ptr %12, align 4, !tbaa !13
  %309 = load ptr, ptr %10, align 8, !tbaa !11
  %310 = sext i32 %308 to i64
  %311 = getelementptr inbounds i8, ptr %309, i64 %310
  store ptr %311, ptr %10, align 8, !tbaa !11
  br label %312

312:                                              ; preds = %295
  %313 = load i32, ptr %16, align 4, !tbaa !13
  %314 = add nsw i32 %313, 1
  store i32 %314, ptr %16, align 4, !tbaa !13
  br label %17, !llvm.loop !20

315:                                              ; preds = %17
  call void @llvm.lifetime.end.p0(i64 4, ptr %16) #5
  call void @llvm.lifetime.end.p0(i64 4, ptr %15) #5
  ret void
}