; Function Attrs: nofree norecurse nosync nounwind memory(argmem: readwrite) uwtable
define internal void @dirac_hpel_filter(ptr noundef writeonly captures(none) %0, ptr noundef captures(none) %1, ptr noundef writeonly captures(none) %2, ptr noundef readonly captures(none) %3, i32 noundef %4, i32 noundef %5, i32 noundef %6) #1 {
  %8 = icmp sgt i32 %6, 0
  br i1 %8, label %.preheader105.lr.ph, label %._crit_edge116

.preheader105.lr.ph:                              ; preds = %7
  %9 = icmp sgt i32 %5, -8
  %10 = sext i32 %4 to i64
  %11 = sub nsw i32 0, %4
  %12 = sext i32 %11 to i64
  %13 = shl nsw i32 %4, 1
  %14 = sext i32 %13 to i64
  %15 = mul nsw i32 %4, -2
  %16 = sext i32 %15 to i64
  %17 = mul nsw i32 %4, 3
  %18 = sext i32 %17 to i64
  %19 = mul nsw i32 %4, -3
  %20 = sext i32 %19 to i64
  %21 = shl nsw i32 %4, 2
  %22 = sext i32 %21 to i64
  %23 = icmp sgt i32 %5, 0
  %24 = add i32 %5, 4
  %smax = tail call i32 @llvm.smax.i32(i32 %24, i32 -3)
  %25 = add i32 %smax, 1
  %wide.trip.count = zext nneg i32 %5 to i64
  %wide.trip.count125 = zext nneg i32 %5 to i64
  br label %.preheader105

.preheader105:                                    ; preds = %.preheader105.lr.ph, %._crit_edge
  %.0115 = phi i32 [ 0, %.preheader105.lr.ph ], [ %141, %._crit_edge ]
  %.082114 = phi ptr [ %0, %.preheader105.lr.ph ], [ %138, %._crit_edge ]
  %.083113 = phi ptr [ %1, %.preheader105.lr.ph ], [ %139, %._crit_edge ]
  %.084112 = phi ptr [ %2, %.preheader105.lr.ph ], [ %140, %._crit_edge ]
  %.085111 = phi ptr [ %3, %.preheader105.lr.ph ], [ %137, %._crit_edge ]
  br i1 %9, label %.lr.ph, label %._crit_edge

.preheader104:                                    ; preds = %.lr.ph
  br i1 %23, label %.lr.ph108, label %._crit_edge

.lr.ph:                                           ; preds = %.preheader105, %.lr.ph
  %indvars.iv = phi i64 [ %indvars.iv.next, %.lr.ph ], [ -3, %.preheader105 ]
  %26 = getelementptr inbounds i8, ptr %.085111, i64 %indvars.iv
  %27 = load i8, ptr %26, align 1, !tbaa !11
  %28 = zext i8 %27 to i32
  %29 = getelementptr inbounds i8, ptr %26, i64 %10
  %30 = load i8, ptr %29, align 1, !tbaa !11
  %31 = zext i8 %30 to i32
  %32 = add nuw nsw i32 %31, %28
  %33 = mul nuw nsw i32 %32, 21
  %34 = getelementptr inbounds i8, ptr %26, i64 %12
  %35 = load i8, ptr %34, align 1, !tbaa !11
  %36 = zext i8 %35 to i32
  %37 = getelementptr inbounds i8, ptr %26, i64 %14
  %38 = load i8, ptr %37, align 1, !tbaa !11
  %39 = zext i8 %38 to i32
  %40 = add nuw nsw i32 %39, %36
  %.neg88 = mul nsw i32 %40, -7
  %41 = getelementptr inbounds i8, ptr %26, i64 %16
  %42 = load i8, ptr %41, align 1, !tbaa !11
  %43 = zext i8 %42 to i32
  %44 = getelementptr inbounds i8, ptr %26, i64 %18
  %45 = load i8, ptr %44, align 1, !tbaa !11
  %46 = zext i8 %45 to i32
  %47 = add nuw nsw i32 %46, %43
  %48 = mul nuw nsw i32 %47, 3
  %49 = getelementptr inbounds i8, ptr %26, i64 %20
  %50 = load i8, ptr %49, align 1, !tbaa !11
  %51 = zext i8 %50 to i32
  %52 = getelementptr inbounds i8, ptr %26, i64 %22
  %53 = load i8, ptr %52, align 1, !tbaa !11
  %54 = zext i8 %53 to i32
  %.neg103 = add nuw nsw i32 %33, 16
  %55 = add nsw i32 %.neg103, %.neg88
  %56 = add nsw i32 %55, %48
  %57 = add nuw nsw i32 %51, %54
  %58 = sub nsw i32 %56, %57
  %59 = ashr i32 %58, 5
  %.not.i = icmp ult i32 %59, 256
  %isnotneg.i = icmp sgt i32 %59, -1
  %60 = sext i1 %isnotneg.i to i8
  %61 = trunc nuw i32 %59 to i8
  %.0.i = select i1 %.not.i, i8 %61, i8 %60
  %62 = getelementptr inbounds i8, ptr %.083113, i64 %indvars.iv
  store i8 %.0.i, ptr %62, align 1, !tbaa !11
  %indvars.iv.next = add nsw i64 %indvars.iv, 1
  %lftr.wideiv = trunc i64 %indvars.iv.next to i32
  %exitcond.not = icmp eq i32 %25, %lftr.wideiv
  br i1 %exitcond.not, label %.preheader104, label %.lr.ph, !llvm.loop !12

.lr.ph108:                                        ; preds = %.preheader104, %.lr.ph108
  %indvars.iv118 = phi i64 [ %indvars.iv.next119, %.lr.ph108 ], [ 0, %.preheader104 ]
  %63 = getelementptr inbounds nuw i8, ptr %.083113, i64 %indvars.iv118
  %64 = load i8, ptr %63, align 1, !tbaa !11
  %65 = zext i8 %64 to i32
  %66 = getelementptr inbounds nuw i8, ptr %63, i64 1
  %67 = load i8, ptr %66, align 1, !tbaa !11
  %68 = zext i8 %67 to i32
  %69 = add nuw nsw i32 %68, %65
  %70 = mul nuw nsw i32 %69, 21
  %71 = getelementptr inbounds i8, ptr %63, i64 -1
  %72 = load i8, ptr %71, align 1, !tbaa !11
  %73 = zext i8 %72 to i32
  %74 = getelementptr inbounds nuw i8, ptr %63, i64 2
  %75 = load i8, ptr %74, align 1, !tbaa !11
  %76 = zext i8 %75 to i32
  %77 = add nuw nsw i32 %76, %73
  %.neg87 = mul nsw i32 %77, -7
  %78 = getelementptr inbounds i8, ptr %63, i64 -2
  %79 = load i8, ptr %78, align 1, !tbaa !11
  %80 = zext i8 %79 to i32
  %81 = getelementptr inbounds nuw i8, ptr %63, i64 3
  %82 = load i8, ptr %81, align 1, !tbaa !11
  %83 = zext i8 %82 to i32
  %84 = add nuw nsw i32 %83, %80
  %85 = mul nuw nsw i32 %84, 3
  %86 = getelementptr inbounds i8, ptr %63, i64 -3
  %87 = load i8, ptr %86, align 1, !tbaa !11
  %88 = zext i8 %87 to i32
  %89 = getelementptr inbounds nuw i8, ptr %63, i64 4
  %90 = load i8, ptr %89, align 1, !tbaa !11
  %91 = zext i8 %90 to i32
  %.neg100 = add nuw nsw i32 %70, 16
  %92 = add nsw i32 %.neg100, %.neg87
  %93 = add nsw i32 %92, %85
  %94 = add nuw nsw i32 %88, %91
  %95 = sub nsw i32 %93, %94
  %96 = ashr i32 %95, 5
  %.not.i89 = icmp ult i32 %96, 256
  %isnotneg.i90 = icmp sgt i32 %96, -1
  %97 = sext i1 %isnotneg.i90 to i8
  %98 = trunc nuw i32 %96 to i8
  %.0.i91 = select i1 %.not.i89, i8 %98, i8 %97
  %99 = getelementptr inbounds nuw i8, ptr %.084112, i64 %indvars.iv118
  store i8 %.0.i91, ptr %99, align 1, !tbaa !11
  %indvars.iv.next119 = add nuw nsw i64 %indvars.iv118, 1
  %exitcond121.not = icmp eq i64 %indvars.iv.next119, %wide.trip.count
  br i1 %exitcond121.not, label %.lr.ph110, label %.lr.ph108, !llvm.loop !14

.lr.ph110:                                        ; preds = %.lr.ph108, %.lr.ph110
  %indvars.iv122 = phi i64 [ %indvars.iv.next123, %.lr.ph110 ], [ 0, %.lr.ph108 ]
  %100 = getelementptr inbounds nuw i8, ptr %.085111, i64 %indvars.iv122
  %101 = load i8, ptr %100, align 1, !tbaa !11
  %102 = zext i8 %101 to i32
  %103 = getelementptr inbounds nuw i8, ptr %100, i64 1
  %104 = load i8, ptr %103, align 1, !tbaa !11
  %105 = zext i8 %104 to i32
  %106 = add nuw nsw i32 %105, %102
  %107 = mul nuw nsw i32 %106, 21
  %108 = getelementptr inbounds i8, ptr %100, i64 -1
  %109 = load i8, ptr %108, align 1, !tbaa !11
  %110 = zext i8 %109 to i32
  %111 = getelementptr inbounds nuw i8, ptr %100, i64 2
  %112 = load i8, ptr %111, align 1, !tbaa !11
  %113 = zext i8 %112 to i32
  %114 = add nuw nsw i32 %113, %110
  %.neg = mul nsw i32 %114, -7
  %115 = getelementptr inbounds i8, ptr %100, i64 -2
  %116 = load i8, ptr %115, align 1, !tbaa !11
  %117 = zext i8 %116 to i32
  %118 = getelementptr inbounds nuw i8, ptr %100, i64 3
  %119 = load i8, ptr %118, align 1, !tbaa !11
  %120 = zext i8 %119 to i32
  %121 = add nuw nsw i32 %120, %117
  %122 = mul nuw nsw i32 %121, 3
  %123 = getelementptr inbounds i8, ptr %100, i64 -3
  %124 = load i8, ptr %123, align 1, !tbaa !11
  %125 = zext i8 %124 to i32
  %126 = getelementptr inbounds nuw i8, ptr %100, i64 4
  %127 = load i8, ptr %126, align 1, !tbaa !11
  %128 = zext i8 %127 to i32
  %.neg97 = add nuw nsw i32 %107, 16
  %129 = add nsw i32 %.neg97, %.neg
  %130 = add nsw i32 %129, %122
  %131 = add nuw nsw i32 %125, %128
  %132 = sub nsw i32 %130, %131
  %133 = ashr i32 %132, 5
  %.not.i92 = icmp ult i32 %133, 256
  %isnotneg.i93 = icmp sgt i32 %133, -1
  %134 = sext i1 %isnotneg.i93 to i8
  %135 = trunc nuw i32 %133 to i8
  %.0.i94 = select i1 %.not.i92, i8 %135, i8 %134
  %136 = getelementptr inbounds nuw i8, ptr %.082114, i64 %indvars.iv122
  store i8 %.0.i94, ptr %136, align 1, !tbaa !11
  %indvars.iv.next123 = add nuw nsw i64 %indvars.iv122, 1
  %exitcond126.not = icmp eq i64 %indvars.iv.next123, %wide.trip.count125
  br i1 %exitcond126.not, label %._crit_edge, label %.lr.ph110, !llvm.loop !15

._crit_edge:                                      ; preds = %.lr.ph110, %.preheader105, %.preheader104
  %137 = getelementptr inbounds i8, ptr %.085111, i64 %10
  %138 = getelementptr inbounds i8, ptr %.082114, i64 %10
  %139 = getelementptr inbounds i8, ptr %.083113, i64 %10
  %140 = getelementptr inbounds i8, ptr %.084112, i64 %10
  %141 = add nuw nsw i32 %.0115, 1
  %exitcond127.not = icmp eq i32 %141, %6
  br i1 %exitcond127.not, label %._crit_edge116, label %.preheader105, !llvm.loop !16

._crit_edge116:                                   ; preds = %._crit_edge, %7
  ret void
}